; Function Attrs: mustprogress uwtable
define internal void @_ZN7rocksdb12_GLOBAL__N_119CountedWritableFile16PositionedAppendERKNS_5SliceEmRKNS_9IOOptionsERKNS_20DataVerificationInfoEPNS_14IODebugContextE(ptr dead_on_unwind noalias writable sret(%"class.rocksdb::IOStatus") align 8 %0, ptr noundef nonnull readonly align 8 captures(none) dereferenceable(64) %1, ptr noundef nonnull align 8 dereferenceable(16) %2, i64 noundef %3, ptr noundef nonnull align 8 dereferenceable(84) %4, ptr noundef nonnull align 8 dereferenceable(16) %5, ptr noundef %6) unnamed_addr #0 align 2 personality ptr @__gxx_personality_v0 {
  %8 = getelementptr inbounds nuw i8, ptr %1, i64 40
  %9 = load ptr, ptr %8, align 8, !tbaa !113
  %10 = load ptr, ptr %9, align 8, !tbaa !4
  %11 = getelementptr inbounds nuw i8, ptr %10, i64 40
  %12 = load ptr, ptr %11, align 8
  tail call void %12(ptr dead_on_unwind writable sret(%"class.rocksdb::IOStatus") align 8 %0, ptr noundef nonnull align 8 dereferenceable(33) %9, ptr noundef nonnull align 8 dereferenceable(16) %2, i64 noundef %3, ptr noundef nonnull align 8 dereferenceable(84) %4, ptr noundef nonnull align 8 dereferenceable(16) %5, ptr noundef %6)
  %13 = getelementptr inbounds nuw i8, ptr %1, i64 56
  %14 = load ptr, ptr %13, align 8, !tbaa !116
  %15 = getelementptr inbounds nuw i8, ptr %2, i64 8
  %16 = load i64, ptr %15, align 8, !tbaa !168
  %17 = load i8, ptr %0, align 8, !tbaa !64
  %18 = icmp eq i8 %17, 3
  br i1 %18, label %_ZN7rocksdb9OpCounter8RecordOpERKNS_8IOStatusEm.exit, label %19

19:                                               ; preds = %7
  %20 = getelementptr inbounds nuw i8, ptr %14, i64 104
  %21 = atomicrmw add ptr %20, i32 1 monotonic, align 4
  %.pr.i = load i8, ptr %0, align 8, !tbaa !64
  %22 = icmp eq i8 %.pr.i, 0
  br i1 %22, label %23, label %_ZN7rocksdb9OpCounter8RecordOpERKNS_8IOStatusEm.exit

23:                                               ; preds = %19
  %24 = getelementptr inbounds nuw i8, ptr %14, i64 112
  %25 = atomicrmw add ptr %24, i64 %16 monotonic, align 8
  br label %_ZN7rocksdb9OpCounter8RecordOpERKNS_8IOStatusEm.exit

_ZN7rocksdb9OpCounter8RecordOpERKNS_8IOStatusEm.exit: ; preds = %23, %19, %7
  ret void
}